target datalayout = "e-m:e-p270:32:32-p271:32:32-p272:64:64-i64:64-i128:128-f80:128-n8:16:32:64-S128"
target triple = "x86_64-pc-linux-gnu"

%"class.cv::Mat" = type { i32, i32, i32, i32, ptr, ptr, ptr, ptr, ptr, ptr, %"struct.cv::MatSize", %"struct.cv::MatStep" }
%"struct.cv::MatSize" = type { ptr }
%"struct.cv::MatStep" = type { ptr, [2 x i64] }

; Function Attrs: inlinehint mustprogress nounwind uwtable
define linkonce_odr hidden noundef nonnull align 4 dereferenceable(4) ptr @_ZN2cv3Mat2atIfEERT_ii(ptr noundef nonnull align 8 dereferenceable(96) %0, i32 noundef %1, i32 noundef %2) #6 comdat align 2 {
  %4 = alloca ptr, align 8
  %5 = alloca i32, align 4
  %6 = alloca i32, align 4
  store ptr %0, ptr %4, align 8, !tbaa !8
  store i32 %1, ptr %5, align 4, !tbaa !10
  store i32 %2, ptr %6, align 4, !tbaa !10
  %7 = load ptr, ptr %4, align 8
  %8 = getelementptr inbounds nuw %"class.cv::Mat", ptr %7, i32 0, i32 4
  %9 = load ptr, ptr %8, align 8, !tbaa !33
  %10 = getelementptr inbounds nuw %"class.cv::Mat", ptr %7, i32 0, i32 11
  %11 = getelementptr inbounds nuw %"struct.cv::MatStep", ptr %10, i32 0, i32 0
  %12 = load ptr, ptr %11, align 8, !tbaa !34
  %13 = getelementptr inbounds i64, ptr %12, i64 0
  %14 = load i64, ptr %13, align 8, !tbaa !35
  %15 = load i32, ptr %5, align 4, !tbaa !10
  %16 = sext i32 %15 to i64
  %17 = mul i64 %14, %16
  %18 = getelementptr inbounds nuw i8, ptr %9, i64 %17
  %19 = load i32, ptr %6, align 4, !tbaa !10
  %20 = sext i32 %19 to i64
  %21 = getelementptr inbounds float, ptr %18, i64 %20
  ret ptr %21
}

; Function Attrs: inlinehint mustprogress nounwind uwtable
define linkonce_odr hidden noundef nonnull align 4 dereferenceable(4) ptr @_ZNK2cv3Mat2atIfEERKT_ii(ptr noundef nonnull align 8 dereferenceable(96) %0, i32 noundef %1, i32 noundef %2) #6 comdat align 2 {
  %4 = alloca ptr, align 8
  %5 = alloca i32, align 4
  %6 = alloca i32, align 4
  store ptr %0, ptr %4, align 8, !tbaa !8
  store i32 %1, ptr %5, align 4, !tbaa !10
  store i32 %2, ptr %6, align 4, !tbaa !10
  %7 = load ptr, ptr %4, align 8
  %8 = getelementptr inbounds nuw %"class.cv::Mat", ptr %7, i32 0, i32 4
  %9 = load ptr, ptr %8, align 8, !tbaa !33
  %10 = getelementptr inbounds nuw %"class.cv::Mat", ptr %7, i32 0, i32 11
  %11 = getelementptr inbounds nuw %"struct.cv::MatStep", ptr %10, i32 0, i32 0
  %12 = load ptr, ptr %11, align 8, !tbaa !34
  %13 = getelementptr inbounds i64, ptr %12, i64 0
  %14 = load i64, ptr %13, align 8, !tbaa !35
  %15 = load i32, ptr %5, align 4, !tbaa !10
  %16 = sext i32 %15 to i64
  %17 = mul i64 %14, %16
  %18 = getelementptr inbounds nuw i8, ptr %9, i64 %17
  %19 = load i32, ptr %6, align 4, !tbaa !10
  %20 = sext i32 %19 to i64
  %21 = getelementptr inbounds float, ptr %18, i64 %20
  ret ptr %21
}

; Function Attrs: inlinehint mustprogress nounwind uwtable
define linkonce_odr hidden noundef i32 @_ZNK2cv3Mat8channelsEv(ptr noundef nonnull align 8 dereferenceable(96) %0) #6 comdat align 2 {
  %2 = alloca ptr, align 8
  store ptr %0, ptr %2, align 8, !tbaa !8
  %3 = load ptr, ptr %2, align 8
  %4 = getelementptr inbounds nuw %"class.cv::Mat", ptr %3, i32 0, i32 0
  %5 = load i32, ptr %4, align 8, !tbaa !21
  %6 = and i32 %5, 4088
  %7 = ashr i32 %6, 3
  %8 = add nsw i32 %7, 1
  ret i32 %8
}

; Function Attrs: mustprogress uwtable
define hidden void @_ZN13Domain_Filter12getGradientyERKN2cv3MatERS1_(ptr noundef nonnull align 8 dereferenceable(768) %0, ptr noundef nonnull align 8 dereferenceable(96) %1, ptr noundef nonnull align 8 dereferenceable(96) %2) #4 align 2 {
  %4 = alloca ptr, align 8
  %5 = alloca ptr, align 8
  %6 = alloca ptr, align 8
  %7 = alloca i32, align 4
  %8 = alloca i32, align 4
  %9 = alloca i32, align 4
  %10 = alloca i32, align 4
  %11 = alloca i32, align 4
  %12 = alloca i32, align 4
  %13 = alloca i32, align 4
  store ptr %0, ptr %4, align 8, !tbaa !3
  store ptr %1, ptr %5, align 8, !tbaa !8
  store ptr %2, ptr %6, align 8, !tbaa !8
  call void @llvm.lifetime.start.p0(i64 4, ptr %7) #3
  %14 = load ptr, ptr %5, align 8, !tbaa !8
  %15 = getelementptr inbounds nuw %"class.cv::Mat", ptr %14, i32 0, i32 3
  %16 = load i32, ptr %15, align 4, !tbaa !40
  store i32 %16, ptr %7, align 4, !tbaa !10
  call void @llvm.lifetime.start.p0(i64 4, ptr %8) #3
  %17 = load ptr, ptr %5, align 8, !tbaa !8
  %18 = getelementptr inbounds nuw %"class.cv::Mat", ptr %17, i32 0, i32 2
  %19 = load i32, ptr %18, align 8, !tbaa !41
  store i32 %19, ptr %8, align 4, !tbaa !10
  call void @llvm.lifetime.start.p0(i64 4, ptr %9) #3
  %20 = load ptr, ptr %5, align 8, !tbaa !8
  %21 = call noundef i32 @_ZNK2cv3Mat8channelsEv(ptr noundef nonnull align 8 dereferenceable(96) %20)
  store i32 %21, ptr %9, align 4, !tbaa !10
  call void @llvm.lifetime.start.p0(i64 4, ptr %10) #3
  store i32 0, ptr %10, align 4, !tbaa !10
  br label %22

22:                                               ; preds = %76, %3
  %23 = load i32, ptr %10, align 4, !tbaa !10
  %24 = load i32, ptr %8, align 4, !tbaa !10
  %25 = icmp slt i32 %23, %24
  br i1 %25, label %27, label %26

26:                                               ; preds = %22
  store i32 2, ptr %11, align 4
  call void @llvm.lifetime.end.p0(i64 4, ptr %10) #3
  br label %79

27:                                               ; preds = %22
  call void @llvm.lifetime.start.p0(i64 4, ptr %12) #3
  store i32 0, ptr %12, align 4, !tbaa !10
  br label %28

28:                                               ; preds = %72, %27
  %29 = load i32, ptr %12, align 4, !tbaa !10
  %30 = load i32, ptr %7, align 4, !tbaa !10
  %31 = icmp slt i32 %29, %30
  br i1 %31, label %33, label %32

32:                                               ; preds = %28
  store i32 5, ptr %11, align 4
  call void @llvm.lifetime.end.p0(i64 4, ptr %12) #3
  br label %75

33:                                               ; preds = %28
  call void @llvm.lifetime.start.p0(i64 4, ptr %13) #3
  store i32 0, ptr %13, align 4, !tbaa !10
  br label %34

34:                                               ; preds = %68, %33
  %35 = load i32, ptr %13, align 4, !tbaa !10
  %36 = load i32, ptr %9, align 4, !tbaa !10
  %37 = icmp slt i32 %35, %36
  br i1 %37, label %39, label %38

38:                                               ; preds = %34
  store i32 8, ptr %11, align 4
  call void @llvm.lifetime.end.p0(i64 4, ptr %13) #3
  br label %71

39:                                               ; preds = %34
  %40 = load ptr, ptr %5, align 8, !tbaa !8
  %41 = load i32, ptr %10, align 4, !tbaa !10
  %42 = add nsw i32 %41, 1
  %43 = load i32, ptr %12, align 4, !tbaa !10
  %44 = load i32, ptr %9, align 4, !tbaa !10
  %45 = mul nsw i32 %43, %44
  %46 = load i32, ptr %13, align 4, !tbaa !10
  %47 = add nsw i32 %45, %46
  %48 = call noundef nonnull align 4 dereferenceable(4) ptr @_ZNK2cv3Mat2atIfEERKT_ii(ptr noundef nonnull align 8 dereferenceable(96) %40, i32 noundef %42, i32 noundef %47)
  %49 = load float, ptr %48, align 4, !tbaa !15
  %50 = load ptr, ptr %5, align 8, !tbaa !8
  %51 = load i32, ptr %10, align 4, !tbaa !10
  %52 = load i32, ptr %12, align 4, !tbaa !10
  %53 = load i32, ptr %9, align 4, !tbaa !10
  %54 = mul nsw i32 %52, %53
  %55 = load i32, ptr %13, align 4, !tbaa !10
  %56 = add nsw i32 %54, %55
  %57 = call noundef nonnull align 4 dereferenceable(4) ptr @_ZNK2cv3Mat2atIfEERKT_ii(ptr noundef nonnull align 8 dereferenceable(96) %50, i32 noundef %51, i32 noundef %56)
  %58 = load float, ptr %57, align 4, !tbaa !15
  %59 = fsub float %49, %58
  %60 = load ptr, ptr %6, align 8, !tbaa !8
  %61 = load i32, ptr %10, align 4, !tbaa !10
  %62 = load i32, ptr %12, align 4, !tbaa !10
  %63 = load i32, ptr %9, align 4, !tbaa !10
  %64 = mul nsw i32 %62, %63
  %65 = load i32, ptr %13, align 4, !tbaa !10
  %66 = add nsw i32 %64, %65
  %67 = call noundef nonnull align 4 dereferenceable(4) ptr @_ZN2cv3Mat2atIfEERT_ii(ptr noundef nonnull align 8 dereferenceable(96) %60, i32 noundef %61, i32 noundef %66)
  store float %59, ptr %67, align 4, !tbaa !15
  br label %68

68:                                               ; preds = %39
  %69 = load i32, ptr %13, align 4, !tbaa !10
  %70 = add nsw i32 %69, 1
  store i32 %70, ptr %13, align 4, !tbaa !10
  br label %34, !llvm.loop !45

71:                                               ; preds = %38
  br label %72

72:                                               ; preds = %71
  %73 = load i32, ptr %12, align 4, !tbaa !10
  %74 = add nsw i32 %73, 1
  store i32 %74, ptr %12, align 4, !tbaa !10
  br label %28, !llvm.loop !46

75:                                               ; preds = %32
  br label %76

76:                                               ; preds = %75
  %77 = load i32, ptr %10, align 4, !tbaa !10
  %78 = add nsw i32 %77, 1
  store i32 %78, ptr %10, align 4, !tbaa !10
  br label %22, !llvm.loop !47

79:                                               ; preds = %26
  call void @llvm.lifetime.end.p0(i64 4, ptr %9) #3
  call void @llvm.lifetime.end.p0(i64 4, ptr %8) #3
  call void @llvm.lifetime.end.p0(i64 4, ptr %7) #3
  ret void
}