; Function Attrs: mustprogress nofree norecurse nosync nounwind memory(readwrite, inaccessiblemem: none) uwtable
define hidden void @_ZN13Domain_Filter12getGradientyERKN2cv3MatERS1_(ptr noundef nonnull readnone align 8 captures(none) dereferenceable(768) %0, ptr noundef nonnull readonly align 8 captures(none) dereferenceable(96) %1, ptr noundef nonnull readonly align 8 captures(none) dereferenceable(96) %2) local_unnamed_addr #3 align 2 {
  %4 = getelementptr inbounds nuw i8, ptr %1, i64 12
  %5 = load i32, ptr %4, align 4, !tbaa !29
  %6 = getelementptr inbounds nuw i8, ptr %1, i64 8
  %7 = load i32, ptr %6, align 8, !tbaa !30
  %8 = load i32, ptr %1, align 8, !tbaa !3
  %9 = lshr i32 %8, 3
  %10 = and i32 %9, 511
  %11 = add nuw nsw i32 %10, 1
  %12 = icmp sgt i32 %7, 0
  br i1 %12, label %.preheader29.lr.ph, label %._crit_edge33

.preheader29.lr.ph:                               ; preds = %3
  %13 = icmp sgt i32 %5, 0
  %14 = getelementptr inbounds nuw i8, ptr %1, i64 16
  %15 = load ptr, ptr %14, align 8
  %16 = getelementptr inbounds nuw i8, ptr %2, i64 16
  %17 = load ptr, ptr %16, align 8
  br i1 %13, label %.preheader29.lr.ph.split.us, label %._crit_edge33

.preheader29.lr.ph.split.us:                      ; preds = %.preheader29.lr.ph
  %18 = getelementptr inbounds nuw i8, ptr %2, i64 72
  %19 = load ptr, ptr %18, align 8
  %20 = getelementptr inbounds nuw i8, ptr %1, i64 72
  %21 = load ptr, ptr %20, align 8
  %22 = load i64, ptr %21, align 8, !tbaa !18
  %23 = load i64, ptr %19, align 8, !tbaa !18
  %24 = zext nneg i32 %11 to i64
  %wide.trip.count44 = zext nneg i32 %7 to i64
  %wide.trip.count39 = zext nneg i32 %5 to i64
  br label %.preheader29.us

.preheader29.us:                                  ; preds = %._crit_edge.us, %.preheader29.lr.ph.split.us
  %indvars.iv41 = phi i64 [ %indvars.iv.next42, %._crit_edge.us ], [ 0, %.preheader29.lr.ph.split.us ]
  %indvars.iv.next42 = add nuw nsw i64 %indvars.iv41, 1
  %25 = mul i64 %22, %indvars.iv.next42
  %26 = getelementptr inbounds nuw i8, ptr %15, i64 %25
  %27 = mul i64 %22, %indvars.iv41
  %28 = getelementptr inbounds nuw i8, ptr %15, i64 %27
  %29 = mul i64 %23, %indvars.iv41
  %30 = getelementptr inbounds nuw i8, ptr %17, i64 %29
  br label %.preheader.us

31:                                               ; preds = %.preheader.us, %31
  %indvars.iv = phi i64 [ 0, %.preheader.us ], [ %indvars.iv.next, %31 ]
  %32 = add nuw nsw i64 %indvars.iv, %40
  %33 = getelementptr inbounds nuw float, ptr %26, i64 %32
  %34 = load float, ptr %33, align 4, !tbaa !20
  %35 = getelementptr inbounds nuw float, ptr %28, i64 %32
  %36 = load float, ptr %35, align 4, !tbaa !20
  %37 = fsub float %34, %36
  %38 = getelementptr inbounds nuw float, ptr %30, i64 %32
  store float %37, ptr %38, align 4, !tbaa !20
  %indvars.iv.next = add nuw nsw i64 %indvars.iv, 1
  %exitcond.not = icmp eq i64 %indvars.iv.next, %24
  br i1 %exitcond.not, label %39, label %31, !llvm.loop !34

39:                                               ; preds = %31
  %indvars.iv.next37 = add nuw nsw i64 %indvars.iv36, 1
  %exitcond40.not = icmp eq i64 %indvars.iv.next37, %wide.trip.count39
  br i1 %exitcond40.not, label %._crit_edge.us, label %.preheader.us, !llvm.loop !35

.preheader.us:                                    ; preds = %.preheader29.us, %39
  %indvars.iv36 = phi i64 [ 0, %.preheader29.us ], [ %indvars.iv.next37, %39 ]
  %40 = mul nuw nsw i64 %indvars.iv36, %24
  br label %31

._crit_edge.us:                                   ; preds = %39
  %exitcond45.not = icmp eq i64 %indvars.iv.next42, %wide.trip.count44
  br i1 %exitcond45.not, label %._crit_edge33, label %.preheader29.us, !llvm.loop !36

._crit_edge33:                                    ; preds = %._crit_edge.us, %.preheader29.lr.ph, %3
  ret void
}